GAS LISTING /tmp/ccJ8fo4V.s 			page 1


   1              		.file	"main.c"
   2              	# GNU C (Ubuntu/Linaro 4.5.2-8ubuntu4) version 4.5.2 (i686-linux-gnu)
   3              	#	compiled by GNU C version 4.5.2, GMP version 4.3.2, MPFR version 3.0.0-p8, MPC version 0.9
   4              	# GGC heuristics: --param ggc-min-expand=100 --param ggc-min-heapsize=131072
   5              	# options passed:  main.c -D_FORTIFY_SOURCE=2 -mtune=generic -march=i686 -g
   6              	# -fverbose-asm -fstack-protector
   7              	# options enabled:  -falign-loops -fargument-alias -fauto-inc-dec
   8              	# -fbranch-count-reg -fcommon -fdelete-null-pointer-checks -fdwarf2-cfi-asm
   9              	# -fearly-inlining -feliminate-unused-debug-types -ffunction-cse -fgcse-lm
  10              	# -fident -finline-functions-called-once -fira-share-save-slots
  11              	# -fira-share-spill-slots -fivopts -fkeep-static-consts
  12              	# -fleading-underscore -fmath-errno -fmerge-debug-strings
  13              	# -fmove-loop-invariants -fpcc-struct-return -fpeephole
  14              	# -fsched-critical-path-heuristic -fsched-dep-count-heuristic
  15              	# -fsched-group-heuristic -fsched-interblock -fsched-last-insn-heuristic
  16              	# -fsched-rank-heuristic -fsched-spec -fsched-spec-insn-heuristic
  17              	# -fsched-stalled-insns-dep -fshow-column -fsigned-zeros
  18              	# -fsplit-ivs-in-unroller -fstack-protector -fstrict-volatile-bitfields
  19              	# -ftrapping-math -ftree-cselim -ftree-forwprop -ftree-loop-im
  20              	# -ftree-loop-ivcanon -ftree-loop-optimize -ftree-parallelize-loops=
  21              	# -ftree-phiprop -ftree-pta -ftree-reassoc -ftree-scev-cprop
  22              	# -ftree-slp-vectorize -ftree-vect-loop-version -funit-at-a-time
  23              	# -fvect-cost-model -fverbose-asm -fzero-initialized-in-bss -m32 -m80387
  24              	# -m96bit-long-double -maccumulate-outgoing-args -malign-stringops
  25              	# -mfancy-math-387 -mfp-ret-in-387 -mfused-madd -mglibc -mieee-fp
  26              	# -mno-red-zone -mno-sse4 -mpush-args -msahf -mtls-direct-seg-refs
  27              	
  34 0000 33000000 		.text
  34      02001D00 
  34      00000101 
  34      FB0E0D00 
  34      01010101 
  35              	.Ltext0:
  36              	# Compiler executable checksum: 24fa3c62280efca5521ca3fd6082c01d
  37              	
  38              		.cfi_sections	.debug_frame
  39              	.globl usa
  40              		.data
  41              		.align 4
  42              		.type	usa, @object
  43              		.size	usa, 4
  44              	usa:
  45 0000 64000000 		.long	100
  46              	.globl aarti
  47              		.align 4
  48              		.type	aarti, @object
  49              		.size	aarti, 4
  50              	aarti:
  51 0004 C8000000 		.long	200
  52              	.globl ksk
  53              		.align 4
GAS LISTING /tmp/ccJ8fo4V.s 			page 2


  54              		.type	ksk, @object
  55              		.size	ksk, 4
  56              	ksk:
  57 0008 C8000000 		.long	200
  58              		.text
  59              	.globl main
  60              		.type	main, @function
  61              	main:
  62              	.LFB0:
  63              		.file 1 "main.c"
   1:main.c        **** int usa = 100;
   2:main.c        **** int aarti = 200;
   3:main.c        **** int ksk = 200;
   4:main.c        **** 
   5:main.c        **** struct m 
   6:main.c        **** {
   7:main.c        ****   int i;
   8:main.c        ****   char c[0];
   9:main.c        **** };
  10:main.c        **** main()
  11:main.c        **** {
  64              		.loc 1 11 0
  65              		.cfi_startproc
  66 0000 55       		pushl	%ebp	#
  67              	.LCFI0:
  68              		.cfi_def_cfa_offset 8
  69 0001 89E5     		movl	%esp, %ebp	#,
  70              		.cfi_offset 5, -8
  71              	.LCFI1:
  72              		.cfi_def_cfa_register 5
  73 0003 83EC10   		subl	$16, %esp	#,
  12:main.c        ****    struct m c;
  13:main.c        ****    
  14:main.c        ****    //printf("%d %d %d", a ,b, sizeof(c));
  15:main.c        **** }
  74              		.loc 1 15 0
  75 0006 C9       		leave
  76              		.cfi_restore 5
  77              	.LCFI2:
  78              		.cfi_def_cfa 4, 4
  79 0007 C3       		ret
  80              		.cfi_endproc
  81              	.LFE0:
  82              		.size	main, .-main
  83              	.Letext0:
 421              		.section	.note.GNU-stack,"",@progbits
GAS LISTING /tmp/ccJ8fo4V.s 			page 9

