
tree.exe:     file format elf32-i386


Disassembly of section .init:

080482b4 <_init>:
 80482b4:	55                   	push   %ebp
 80482b5:	89 e5                	mov    %esp,%ebp
 80482b7:	53                   	push   %ebx
 80482b8:	83 ec 04             	sub    $0x4,%esp
 80482bb:	e8 00 00 00 00       	call   80482c0 <_init+0xc>
 80482c0:	5b                   	pop    %ebx
 80482c1:	81 c3 34 1d 00 00    	add    $0x1d34,%ebx
 80482c7:	8b 93 fc ff ff ff    	mov    -0x4(%ebx),%edx
 80482cd:	85 d2                	test   %edx,%edx
 80482cf:	74 05                	je     80482d6 <_init+0x22>
 80482d1:	e8 1e 00 00 00       	call   80482f4 <__gmon_start__@plt>
 80482d6:	e8 f5 00 00 00       	call   80483d0 <frame_dummy>
 80482db:	e8 e0 02 00 00       	call   80485c0 <__do_global_ctors_aux>
 80482e0:	58                   	pop    %eax
 80482e1:	5b                   	pop    %ebx
 80482e2:	c9                   	leave  
 80482e3:	c3                   	ret    

Disassembly of section .plt:

080482e4 <__gmon_start__@plt-0x10>:
 80482e4:	ff 35 f8 9f 04 08    	pushl  0x8049ff8
 80482ea:	ff 25 fc 9f 04 08    	jmp    *0x8049ffc
 80482f0:	00 00                	add    %al,(%eax)
	...

080482f4 <__gmon_start__@plt>:
 80482f4:	ff 25 00 a0 04 08    	jmp    *0x804a000
 80482fa:	68 00 00 00 00       	push   $0x0
 80482ff:	e9 e0 ff ff ff       	jmp    80482e4 <_init+0x30>

08048304 <__libc_start_main@plt>:
 8048304:	ff 25 04 a0 04 08    	jmp    *0x804a004
 804830a:	68 08 00 00 00       	push   $0x8
 804830f:	e9 d0 ff ff ff       	jmp    80482e4 <_init+0x30>

08048314 <printf@plt>:
 8048314:	ff 25 08 a0 04 08    	jmp    *0x804a008
 804831a:	68 10 00 00 00       	push   $0x10
 804831f:	e9 c0 ff ff ff       	jmp    80482e4 <_init+0x30>

08048324 <malloc@plt>:
 8048324:	ff 25 0c a0 04 08    	jmp    *0x804a00c
 804832a:	68 18 00 00 00       	push   $0x18
 804832f:	e9 b0 ff ff ff       	jmp    80482e4 <_init+0x30>

Disassembly of section .text:

08048340 <_start>:
 8048340:	31 ed                	xor    %ebp,%ebp
 8048342:	5e                   	pop    %esi
 8048343:	89 e1                	mov    %esp,%ecx
 8048345:	83 e4 f0             	and    $0xfffffff0,%esp
 8048348:	50                   	push   %eax
 8048349:	54                   	push   %esp
 804834a:	52                   	push   %edx
 804834b:	68 b0 85 04 08       	push   $0x80485b0
 8048350:	68 50 85 04 08       	push   $0x8048550
 8048355:	51                   	push   %ecx
 8048356:	56                   	push   %esi
 8048357:	68 f0 84 04 08       	push   $0x80484f0
 804835c:	e8 a3 ff ff ff       	call   8048304 <__libc_start_main@plt>
 8048361:	f4                   	hlt    
 8048362:	90                   	nop
 8048363:	90                   	nop
 8048364:	90                   	nop
 8048365:	90                   	nop
 8048366:	90                   	nop
 8048367:	90                   	nop
 8048368:	90                   	nop
 8048369:	90                   	nop
 804836a:	90                   	nop
 804836b:	90                   	nop
 804836c:	90                   	nop
 804836d:	90                   	nop
 804836e:	90                   	nop
 804836f:	90                   	nop

08048370 <__do_global_dtors_aux>:
 8048370:	55                   	push   %ebp
 8048371:	89 e5                	mov    %esp,%ebp
 8048373:	53                   	push   %ebx
 8048374:	83 ec 04             	sub    $0x4,%esp
 8048377:	80 3d 18 a0 04 08 00 	cmpb   $0x0,0x804a018
 804837e:	75 3f                	jne    80483bf <__do_global_dtors_aux+0x4f>
 8048380:	a1 1c a0 04 08       	mov    0x804a01c,%eax
 8048385:	bb 20 9f 04 08       	mov    $0x8049f20,%ebx
 804838a:	81 eb 1c 9f 04 08    	sub    $0x8049f1c,%ebx
 8048390:	c1 fb 02             	sar    $0x2,%ebx
 8048393:	83 eb 01             	sub    $0x1,%ebx
 8048396:	39 d8                	cmp    %ebx,%eax
 8048398:	73 1e                	jae    80483b8 <__do_global_dtors_aux+0x48>
 804839a:	8d b6 00 00 00 00    	lea    0x0(%esi),%esi
 80483a0:	83 c0 01             	add    $0x1,%eax
 80483a3:	a3 1c a0 04 08       	mov    %eax,0x804a01c
 80483a8:	ff 14 85 1c 9f 04 08 	call   *0x8049f1c(,%eax,4)
 80483af:	a1 1c a0 04 08       	mov    0x804a01c,%eax
 80483b4:	39 d8                	cmp    %ebx,%eax
 80483b6:	72 e8                	jb     80483a0 <__do_global_dtors_aux+0x30>
 80483b8:	c6 05 18 a0 04 08 01 	movb   $0x1,0x804a018
 80483bf:	83 c4 04             	add    $0x4,%esp
 80483c2:	5b                   	pop    %ebx
 80483c3:	5d                   	pop    %ebp
 80483c4:	c3                   	ret    
 80483c5:	8d 74 26 00          	lea    0x0(%esi,%eiz,1),%esi
 80483c9:	8d bc 27 00 00 00 00 	lea    0x0(%edi,%eiz,1),%edi

080483d0 <frame_dummy>:
 80483d0:	55                   	push   %ebp
 80483d1:	89 e5                	mov    %esp,%ebp
 80483d3:	83 ec 18             	sub    $0x18,%esp
 80483d6:	a1 24 9f 04 08       	mov    0x8049f24,%eax
 80483db:	85 c0                	test   %eax,%eax
 80483dd:	74 12                	je     80483f1 <frame_dummy+0x21>
 80483df:	b8 00 00 00 00       	mov    $0x0,%eax
 80483e4:	85 c0                	test   %eax,%eax
 80483e6:	74 09                	je     80483f1 <frame_dummy+0x21>
 80483e8:	c7 04 24 24 9f 04 08 	movl   $0x8049f24,(%esp)
 80483ef:	ff d0                	call   *%eax
 80483f1:	c9                   	leave  
 80483f2:	c3                   	ret    
 80483f3:	90                   	nop

080483f4 <printpreorder>:
 80483f4:	55                   	push   %ebp
 80483f5:	89 e5                	mov    %esp,%ebp
 80483f7:	83 ec 18             	sub    $0x18,%esp
 80483fa:	83 7d 08 00          	cmpl   $0x0,0x8(%ebp)
 80483fe:	74 33                	je     8048433 <printpreorder+0x3f>
 8048400:	8b 45 08             	mov    0x8(%ebp),%eax
 8048403:	8b 40 04             	mov    0x4(%eax),%eax
 8048406:	89 04 24             	mov    %eax,(%esp)
 8048409:	e8 e6 ff ff ff       	call   80483f4 <printpreorder>
 804840e:	8b 45 08             	mov    0x8(%ebp),%eax
 8048411:	8b 00                	mov    (%eax),%eax
 8048413:	89 44 24 04          	mov    %eax,0x4(%esp)
 8048417:	c7 04 24 10 86 04 08 	movl   $0x8048610,(%esp)
 804841e:	e8 f1 fe ff ff       	call   8048314 <printf@plt>
 8048423:	8b 45 08             	mov    0x8(%ebp),%eax
 8048426:	8b 40 08             	mov    0x8(%eax),%eax
 8048429:	89 04 24             	mov    %eax,(%esp)
 804842c:	e8 c3 ff ff ff       	call   80483f4 <printpreorder>
 8048431:	eb 01                	jmp    8048434 <printpreorder+0x40>
 8048433:	90                   	nop
 8048434:	c9                   	leave  
 8048435:	c3                   	ret    

08048436 <add>:
 8048436:	55                   	push   %ebp
 8048437:	89 e5                	mov    %esp,%ebp
 8048439:	53                   	push   %ebx
 804843a:	83 ec 14             	sub    $0x14,%esp
 804843d:	8b 45 08             	mov    0x8(%ebp),%eax
 8048440:	8b 00                	mov    (%eax),%eax
 8048442:	85 c0                	test   %eax,%eax
 8048444:	75 53                	jne    8048499 <add+0x63>
 8048446:	c7 04 24 0c 00 00 00 	movl   $0xc,(%esp)
 804844d:	e8 d2 fe ff ff       	call   8048324 <malloc@plt>
 8048452:	89 c2                	mov    %eax,%edx
 8048454:	8b 45 08             	mov    0x8(%ebp),%eax
 8048457:	89 10                	mov    %edx,(%eax)
 8048459:	8b 45 08             	mov    0x8(%ebp),%eax
 804845c:	8b 00                	mov    (%eax),%eax
 804845e:	8b 55 0c             	mov    0xc(%ebp),%edx
 8048461:	89 10                	mov    %edx,(%eax)
 8048463:	8b 45 08             	mov    0x8(%ebp),%eax
 8048466:	8b 00                	mov    (%eax),%eax
 8048468:	c7 40 04 00 00 00 00 	movl   $0x0,0x4(%eax)
 804846f:	8b 45 08             	mov    0x8(%ebp),%eax
 8048472:	8b 00                	mov    (%eax),%eax
 8048474:	c7 40 08 00 00 00 00 	movl   $0x0,0x8(%eax)
 804847b:	8b 45 08             	mov    0x8(%ebp),%eax
 804847e:	8b 00                	mov    (%eax),%eax
 8048480:	8b 00                	mov    (%eax),%eax
 8048482:	89 44 24 04          	mov    %eax,0x4(%esp)
 8048486:	c7 04 24 1a 86 04 08 	movl   $0x804861a,(%esp)
 804848d:	e8 82 fe ff ff       	call   8048314 <printf@plt>
 8048492:	8b 45 08             	mov    0x8(%ebp),%eax
 8048495:	8b 00                	mov    (%eax),%eax
 8048497:	eb 51                	jmp    80484ea <add+0xb4>
 8048499:	8b 45 08             	mov    0x8(%ebp),%eax
 804849c:	8b 00                	mov    (%eax),%eax
 804849e:	8b 00                	mov    (%eax),%eax
 80484a0:	3b 45 0c             	cmp    0xc(%ebp),%eax
 80484a3:	7d 21                	jge    80484c6 <add+0x90>
 80484a5:	8b 45 08             	mov    0x8(%ebp),%eax
 80484a8:	8b 18                	mov    (%eax),%ebx
 80484aa:	8b 45 08             	mov    0x8(%ebp),%eax
 80484ad:	8b 00                	mov    (%eax),%eax
 80484af:	8d 50 08             	lea    0x8(%eax),%edx
 80484b2:	8b 45 0c             	mov    0xc(%ebp),%eax
 80484b5:	89 44 24 04          	mov    %eax,0x4(%esp)
 80484b9:	89 14 24             	mov    %edx,(%esp)
 80484bc:	e8 75 ff ff ff       	call   8048436 <add>
 80484c1:	89 43 08             	mov    %eax,0x8(%ebx)
 80484c4:	eb 1f                	jmp    80484e5 <add+0xaf>
 80484c6:	8b 45 08             	mov    0x8(%ebp),%eax
 80484c9:	8b 18                	mov    (%eax),%ebx
 80484cb:	8b 45 08             	mov    0x8(%ebp),%eax
 80484ce:	8b 00                	mov    (%eax),%eax
 80484d0:	8d 50 04             	lea    0x4(%eax),%edx
 80484d3:	8b 45 0c             	mov    0xc(%ebp),%eax
 80484d6:	89 44 24 04          	mov    %eax,0x4(%esp)
 80484da:	89 14 24             	mov    %edx,(%esp)
 80484dd:	e8 54 ff ff ff       	call   8048436 <add>
 80484e2:	89 43 04             	mov    %eax,0x4(%ebx)
 80484e5:	8b 45 08             	mov    0x8(%ebp),%eax
 80484e8:	8b 00                	mov    (%eax),%eax
 80484ea:	83 c4 14             	add    $0x14,%esp
 80484ed:	5b                   	pop    %ebx
 80484ee:	5d                   	pop    %ebp
 80484ef:	c3                   	ret    

080484f0 <main>:
 80484f0:	55                   	push   %ebp
 80484f1:	89 e5                	mov    %esp,%ebp
 80484f3:	83 e4 f0             	and    $0xfffffff0,%esp
 80484f6:	83 ec 20             	sub    $0x20,%esp
 80484f9:	c7 44 24 1c 00 00 00 	movl   $0x0,0x1c(%esp)
 8048500:	00 
 8048501:	c7 44 24 04 01 00 00 	movl   $0x1,0x4(%esp)
 8048508:	00 
 8048509:	8d 44 24 1c          	lea    0x1c(%esp),%eax
 804850d:	89 04 24             	mov    %eax,(%esp)
 8048510:	e8 21 ff ff ff       	call   8048436 <add>
 8048515:	c7 44 24 04 04 00 00 	movl   $0x4,0x4(%esp)
 804851c:	00 
 804851d:	8d 44 24 1c          	lea    0x1c(%esp),%eax
 8048521:	89 04 24             	mov    %eax,(%esp)
 8048524:	e8 0d ff ff ff       	call   8048436 <add>
 8048529:	c7 44 24 04 02 00 00 	movl   $0x2,0x4(%esp)
 8048530:	00 
 8048531:	8d 44 24 1c          	lea    0x1c(%esp),%eax
 8048535:	89 04 24             	mov    %eax,(%esp)
 8048538:	e8 f9 fe ff ff       	call   8048436 <add>
 804853d:	8b 44 24 1c          	mov    0x1c(%esp),%eax
 8048541:	89 04 24             	mov    %eax,(%esp)
 8048544:	e8 ab fe ff ff       	call   80483f4 <printpreorder>
 8048549:	c9                   	leave  
 804854a:	c3                   	ret    
 804854b:	90                   	nop
 804854c:	90                   	nop
 804854d:	90                   	nop
 804854e:	90                   	nop
 804854f:	90                   	nop

08048550 <__libc_csu_init>:
 8048550:	55                   	push   %ebp
 8048551:	89 e5                	mov    %esp,%ebp
 8048553:	57                   	push   %edi
 8048554:	56                   	push   %esi
 8048555:	53                   	push   %ebx
 8048556:	e8 5a 00 00 00       	call   80485b5 <__i686.get_pc_thunk.bx>
 804855b:	81 c3 99 1a 00 00    	add    $0x1a99,%ebx
 8048561:	83 ec 1c             	sub    $0x1c,%esp
 8048564:	e8 4b fd ff ff       	call   80482b4 <_init>
 8048569:	8d bb 20 ff ff ff    	lea    -0xe0(%ebx),%edi
 804856f:	8d 83 20 ff ff ff    	lea    -0xe0(%ebx),%eax
 8048575:	29 c7                	sub    %eax,%edi
 8048577:	c1 ff 02             	sar    $0x2,%edi
 804857a:	85 ff                	test   %edi,%edi
 804857c:	74 24                	je     80485a2 <__libc_csu_init+0x52>
 804857e:	31 f6                	xor    %esi,%esi
 8048580:	8b 45 10             	mov    0x10(%ebp),%eax
 8048583:	89 44 24 08          	mov    %eax,0x8(%esp)
 8048587:	8b 45 0c             	mov    0xc(%ebp),%eax
 804858a:	89 44 24 04          	mov    %eax,0x4(%esp)
 804858e:	8b 45 08             	mov    0x8(%ebp),%eax
 8048591:	89 04 24             	mov    %eax,(%esp)
 8048594:	ff 94 b3 20 ff ff ff 	call   *-0xe0(%ebx,%esi,4)
 804859b:	83 c6 01             	add    $0x1,%esi
 804859e:	39 fe                	cmp    %edi,%esi
 80485a0:	72 de                	jb     8048580 <__libc_csu_init+0x30>
 80485a2:	83 c4 1c             	add    $0x1c,%esp
 80485a5:	5b                   	pop    %ebx
 80485a6:	5e                   	pop    %esi
 80485a7:	5f                   	pop    %edi
 80485a8:	5d                   	pop    %ebp
 80485a9:	c3                   	ret    
 80485aa:	8d b6 00 00 00 00    	lea    0x0(%esi),%esi

080485b0 <__libc_csu_fini>:
 80485b0:	55                   	push   %ebp
 80485b1:	89 e5                	mov    %esp,%ebp
 80485b3:	5d                   	pop    %ebp
 80485b4:	c3                   	ret    

080485b5 <__i686.get_pc_thunk.bx>:
 80485b5:	8b 1c 24             	mov    (%esp),%ebx
 80485b8:	c3                   	ret    
 80485b9:	90                   	nop
 80485ba:	90                   	nop
 80485bb:	90                   	nop
 80485bc:	90                   	nop
 80485bd:	90                   	nop
 80485be:	90                   	nop
 80485bf:	90                   	nop

080485c0 <__do_global_ctors_aux>:
 80485c0:	55                   	push   %ebp
 80485c1:	89 e5                	mov    %esp,%ebp
 80485c3:	53                   	push   %ebx
 80485c4:	83 ec 04             	sub    $0x4,%esp
 80485c7:	a1 14 9f 04 08       	mov    0x8049f14,%eax
 80485cc:	83 f8 ff             	cmp    $0xffffffff,%eax
 80485cf:	74 13                	je     80485e4 <__do_global_ctors_aux+0x24>
 80485d1:	bb 14 9f 04 08       	mov    $0x8049f14,%ebx
 80485d6:	66 90                	xchg   %ax,%ax
 80485d8:	83 eb 04             	sub    $0x4,%ebx
 80485db:	ff d0                	call   *%eax
 80485dd:	8b 03                	mov    (%ebx),%eax
 80485df:	83 f8 ff             	cmp    $0xffffffff,%eax
 80485e2:	75 f4                	jne    80485d8 <__do_global_ctors_aux+0x18>
 80485e4:	83 c4 04             	add    $0x4,%esp
 80485e7:	5b                   	pop    %ebx
 80485e8:	5d                   	pop    %ebp
 80485e9:	c3                   	ret    
 80485ea:	90                   	nop
 80485eb:	90                   	nop

Disassembly of section .fini:

080485ec <_fini>:
 80485ec:	55                   	push   %ebp
 80485ed:	89 e5                	mov    %esp,%ebp
 80485ef:	53                   	push   %ebx
 80485f0:	83 ec 04             	sub    $0x4,%esp
 80485f3:	e8 00 00 00 00       	call   80485f8 <_fini+0xc>
 80485f8:	5b                   	pop    %ebx
 80485f9:	81 c3 fc 19 00 00    	add    $0x19fc,%ebx
 80485ff:	e8 6c fd ff ff       	call   8048370 <__do_global_dtors_aux>
 8048604:	59                   	pop    %ecx
 8048605:	5b                   	pop    %ebx
 8048606:	c9                   	leave  
 8048607:	c3                   	ret    
